; Function Attrs: mustprogress uwtable
define void @_ZN7Imf_3_218TiledRgbaInputFileC2EPKcRKNSt7__cxx1112basic_stringIcSt11char_traitsIcESaIcEEEi(ptr noundef nonnull align 8 dereferenceable(56) %this, ptr noundef %name, ptr noundef nonnull align 8 dereferenceable(32) %layerName, i32 noundef %numThreads) unnamed_addr #3 align 2 personality ptr @__gxx_personality_v0 {
entry:
  store ptr getelementptr inbounds ({ [4 x ptr] }, ptr @_ZTVN7Imf_3_218TiledRgbaInputFileE, i64 0, i32 0, i64 2), ptr %this, align 8
  %_inputFile = getelementptr inbounds i8, ptr %this, i64 8
  %call = tail call noalias noundef nonnull dereferenceable(16) ptr @_Znwm(i64 noundef 16) #13
  invoke void @_ZN7Imf_3_214TiledInputFileC1EPKci(ptr noundef nonnull align 8 dereferenceable(16) %call, ptr noundef %name, i32 noundef %numThreads)
          to label %invoke.cont unwind label %lpad

invoke.cont:                                      ; preds = %entry
  store ptr %call, ptr %_inputFile, align 8
  %_fromYa = getelementptr inbounds i8, ptr %this, i64 16
  store ptr null, ptr %_fromYa, align 8
  %_channelNamePrefix = getelementptr inbounds i8, ptr %this, i64 24
  %call3 = tail call noundef nonnull align 8 dereferenceable(49) ptr @_ZNK7Imf_3_214TiledInputFile6headerEv(ptr noundef nonnull align 8 dereferenceable(16) %call)
  tail call fastcc void @_ZN7Imf_3_212_GLOBAL__N_119prefixFromLayerNameERKNSt7__cxx1112basic_stringIcSt11char_traitsIcESaIcEEERKNS_6HeaderE(ptr noalias nonnull align 8 %_channelNamePrefix, ptr noundef nonnull align 8 dereferenceable(32) %layerName, ptr noundef nonnull align 8 dereferenceable(49) %call3)
  %0 = load ptr, ptr %_inputFile, align 8
  %call.i3 = invoke noundef nonnull align 8 dereferenceable(49) ptr @_ZNK7Imf_3_214TiledInputFile6headerEv(ptr noundef nonnull align 8 dereferenceable(16) %0)
          to label %call.i.noexc unwind label %lpad4

call.i.noexc:                                     ; preds = %invoke.cont
  %call2.i4 = invoke noundef nonnull align 8 dereferenceable(48) ptr @_ZNK7Imf_3_26Header8channelsEv(ptr noundef nonnull align 8 dereferenceable(49) %call.i3)
          to label %call2.i.noexc unwind label %lpad4

call2.i.noexc:                                    ; preds = %call.i.noexc
  %call3.i5 = invoke fastcc noundef i32 @_ZN7Imf_3_212_GLOBAL__N_112rgbaChannelsERKNS_11ChannelListERKNSt7__cxx1112basic_stringIcSt11char_traitsIcESaIcEEE(ptr noundef nonnull align 8 dereferenceable(48) %call2.i4, ptr noundef nonnull align 8 dereferenceable(32) %_channelNamePrefix)
          to label %invoke.cont5 unwind label %lpad4

invoke.cont5:                                     ; preds = %call2.i.noexc
  %tobool.not = icmp ult i32 %call3.i5, 16
  br i1 %tobool.not, label %if.end, label %if.then

if.then:                                          ; preds = %invoke.cont5
  %call8 = invoke noalias noundef nonnull dereferenceable(80) ptr @_Znwm(i64 noundef 80) #13
          to label %invoke.cont7 unwind label %lpad4

invoke.cont7:                                     ; preds = %if.then
  %1 = load ptr, ptr %_inputFile, align 8
  invoke void @_ZN7Imf_3_218TiledRgbaInputFile6FromYaC1ERNS_14TiledInputFileE(ptr noundef nonnull align 8 dereferenceable(80) %call8, ptr noundef nonnull align 8 dereferenceable(16) %1)
          to label %invoke.cont11 unwind label %lpad10

invoke.cont11:                                    ; preds = %invoke.cont7
  store ptr %call8, ptr %_fromYa, align 8
  br label %if.end

lpad:                                             ; preds = %entry
  %2 = landingpad { ptr, i32 }
          cleanup
  tail call void @_ZdlPv(ptr noundef nonnull %call) #14
  br label %eh.resume

lpad4:                                            ; preds = %call2.i.noexc, %call.i.noexc, %invoke.cont, %if.then
  %3 = landingpad { ptr, i32 }
          cleanup
  br label %ehcleanup

lpad10:                                           ; preds = %invoke.cont7
  %4 = landingpad { ptr, i32 }
          cleanup
  tail call void @_ZdlPv(ptr noundef nonnull %call8) #14
  br label %ehcleanup

if.end:                                           ; preds = %invoke.cont11, %invoke.cont5
  ret void

ehcleanup:                                        ; preds = %lpad10, %lpad4
  %.pn = phi { ptr, i32 } [ %4, %lpad10 ], [ %3, %lpad4 ]
  tail call void @_ZNSt7__cxx1112basic_stringIcSt11char_traitsIcESaIcEED1Ev(ptr noundef nonnull align 8 dereferenceable(32) %_channelNamePrefix) #15
  br label %eh.resume

eh.resume:                                        ; preds = %ehcleanup, %lpad
  %.pn.pn = phi { ptr, i32 } [ %.pn, %ehcleanup ], [ %2, %lpad ]
  resume { ptr, i32 } %.pn.pn
}